; Function Attrs: mustprogress nounwind uwtable
define hidden void @_ZN6hermes7PhiInst8addEntryEPNS_5ValueEPNS_10BasicBlockE(ptr noundef nonnull align 8 dereferenceable(132) %this, ptr noundef %val, ptr noundef %BB) local_unnamed_addr #0 align 2 {
entry:
  tail call void @_ZN6hermes11Instruction11pushOperandEPNS_5ValueE(ptr noundef nonnull align 8 dereferenceable(132) %this, ptr noundef %val) #15
  %0 = icmp eq ptr %BB, null
  %add.ptr = getelementptr inbounds nuw i8, ptr %BB, i64 16
  %spec.select = select i1 %0, ptr null, ptr %add.ptr
  tail call void @_ZN6hermes11Instruction11pushOperandEPNS_5ValueE(ptr noundef nonnull align 8 dereferenceable(132) %this, ptr noundef %spec.select) #15
  ret void
}